target datalayout = "e-m:e-p270:32:32-p271:32:32-p272:64:64-i64:64-i128:128-f80:128-n8:16:32:64-S128"
target triple = "x86_64-pc-linux-gnu"

@.str.17 = private unnamed_addr constant [3 x i8] c"wb\00", align 1

; Function Attrs: nounwind uwtable
define hidden zeroext i1 @SDL_SaveFile_REAL(ptr noundef %0, ptr noundef %1, i64 noundef %2) #0 {
  %4 = alloca i1, align 1
  %5 = alloca ptr, align 8
  %6 = alloca ptr, align 8
  %7 = alloca i64, align 8
  %8 = alloca ptr, align 8
  %9 = alloca i32, align 4
  store ptr %0, ptr %5, align 8
  store ptr %1, ptr %6, align 8
  store i64 %2, ptr %7, align 8
  call void @llvm.lifetime.start.p0(i64 8, ptr %8) #11
  %10 = load ptr, ptr %5, align 8
  %11 = call ptr @SDL_IOFromFile_REAL(ptr noundef %10, ptr noundef @.str.17)
  store ptr %11, ptr %8, align 8
  %12 = load ptr, ptr %8, align 8
  %13 = icmp ne ptr %12, null
  br i1 %13, label %15, label %14

14:                                               ; preds = %3
  store i1 false, ptr %4, align 1
  store i32 1, ptr %9, align 4
  br label %20

15:                                               ; preds = %3
  %16 = load ptr, ptr %8, align 8
  %17 = load ptr, ptr %6, align 8
  %18 = load i64, ptr %7, align 8
  %19 = call zeroext i1 @SDL_SaveFile_IO_REAL(ptr noundef %16, ptr noundef %17, i64 noundef %18, i1 noundef zeroext true)
  store i1 %19, ptr %4, align 1
  store i32 1, ptr %9, align 4
  br label %20

20:                                               ; preds = %15, %14
  call void @llvm.lifetime.end.p0(i64 8, ptr %8) #11
  %21 = load i1, ptr %4, align 1
  ret i1 %21
}