; Function Attrs: nounwind uwtable
define hidden noundef zeroext i1 @SDL_SaveFile_REAL(ptr noundef %0, ptr noundef %1, i64 noundef %2) local_unnamed_addr #0 {
  %4 = tail call ptr @SDL_IOFromFile_REAL(ptr noundef %0, ptr noundef nonnull @.str.17)
  %.not = icmp eq ptr %4, null
  br i1 %.not, label %7, label %5

5:                                                ; preds = %3
  %6 = tail call zeroext i1 @SDL_SaveFile_IO_REAL(ptr noundef nonnull %4, ptr noundef %1, i64 noundef %2, i1 noundef zeroext true)
  br label %7

7:                                                ; preds = %3, %5
  %.0 = phi i1 [ %6, %5 ], [ false, %3 ]
  ret i1 %.0
}